; ModuleID = '6/2983.c'
source_filename = "6/2983.c"
target datalayout = "e-m:e-p270:32:32-p271:32:32-p272:64:64-i64:64-f80:128-n8:16:32:64-S128"
target triple = "x86_64-pc-linux-gnu"

@.str = private unnamed_addr constant [3 x i8] c"%d\00", align 1
@.str.1 = private unnamed_addr constant [5 x i8] c"%d%d\00", align 1
@.str.2 = private unnamed_addr constant [4 x i8] c"%d\0A\00", align 1

; Function Attrs: noinline nounwind uwtable
define dso_local i32 @main(i32 %0, i8** %1) #0 {
  %3 = alloca i32, align 4
  %4 = alloca i32, align 4
  %5 = alloca i8**, align 8
  %6 = alloca i32, align 4
  %7 = alloca i32, align 4
  %8 = alloca i32, align 4
  %9 = alloca i32, align 4
  %10 = alloca [100 x [100 x i32]], align 16
  %11 = alloca i32, align 4
  %12 = alloca i32, align 4
  %13 = alloca i32, align 4
  %14 = alloca i32, align 4
  %15 = alloca i32, align 4
  %16 = alloca i32, align 4
  store i32 0, i32* %3, align 4
  store i32 %0, i32* %4, align 4
  store i8** %1, i8*** %5, align 8
  %17 = call i32 (i8*, ...) @__isoc99_scanf(i8* getelementptr inbounds ([3 x i8], [3 x i8]* @.str, i64 0, i64 0), i32* %6)
  store i32 0, i32* %7, align 4
  br label %18

18:                                               ; preds = %117, %2
  %19 = load i32, i32* %7, align 4
  %20 = load i32, i32* %6, align 4
  %21 = icmp slt i32 %19, %20
  br i1 %21, label %22, label %120

22:                                               ; preds = %18
  %23 = call i32 (i8*, ...) @__isoc99_scanf(i8* getelementptr inbounds ([5 x i8], [5 x i8]* @.str.1, i64 0, i64 0), i32* %8, i32* %9)
  store i32 0, i32* %11, align 4
  br label %24

24:                                               ; preds = %45, %22
  %25 = load i32, i32* %11, align 4
  %26 = load i32, i32* %8, align 4
  %27 = icmp slt i32 %25, %26
  br i1 %27, label %28, label %48

28:                                               ; preds = %24
  store i32 0, i32* %12, align 4
  br label %29

29:                                               ; preds = %41, %28
  %30 = load i32, i32* %12, align 4
  %31 = load i32, i32* %9, align 4
  %32 = icmp slt i32 %30, %31
  br i1 %32, label %33, label %44

33:                                               ; preds = %29
  %34 = load i32, i32* %11, align 4
  %35 = sext i32 %34 to i64
  %36 = getelementptr inbounds [100 x [100 x i32]], [100 x [100 x i32]]* %10, i64 0, i64 %35
  %37 = load i32, i32* %12, align 4
  %38 = sext i32 %37 to i64
  %39 = getelementptr inbounds [100 x i32], [100 x i32]* %36, i64 0, i64 %38
  %40 = call i32 (i8*, ...) @__isoc99_scanf(i8* getelementptr inbounds ([3 x i8], [3 x i8]* @.str, i64 0, i64 0), i32* %39)
  br label %41

41:                                               ; preds = %33
  %42 = load i32, i32* %12, align 4
  %43 = add nsw i32 %42, 1
  store i32 %43, i32* %12, align 4
  br label %29

44:                                               ; preds = %29
  br label %45

45:                                               ; preds = %44
  %46 = load i32, i32* %11, align 4
  %47 = add nsw i32 %46, 1
  store i32 %47, i32* %11, align 4
  br label %24

48:                                               ; preds = %24
  store i32 0, i32* %13, align 4
  store i32 0, i32* %14, align 4
  store i32 0, i32* %15, align 4
  store i32 0, i32* %12, align 4
  br label %49

49:                                               ; preds = %61, %48
  %50 = load i32, i32* %12, align 4
  %51 = load i32, i32* %9, align 4
  %52 = icmp slt i32 %50, %51
  br i1 %52, label %53, label %64

53:                                               ; preds = %49
  %54 = getelementptr inbounds [100 x [100 x i32]], [100 x [100 x i32]]* %10, i64 0, i64 0
  %55 = load i32, i32* %12, align 4
  %56 = sext i32 %55 to i64
  %57 = getelementptr inbounds [100 x i32], [100 x i32]* %54, i64 0, i64 %56
  %58 = load i32, i32* %57, align 4
  %59 = load i32, i32* %13, align 4
  %60 = add nsw i32 %59, %58
  store i32 %60, i32* %13, align 4
  br label %61

61:                                               ; preds = %53
  %62 = load i32, i32* %12, align 4
  %63 = add nsw i32 %62, 1
  store i32 %63, i32* %12, align 4
  br label %49

64:                                               ; preds = %49
  store i32 0, i32* %12, align 4
  br label %65

65:                                               ; preds = %80, %64
  %66 = load i32, i32* %12, align 4
  %67 = load i32, i32* %9, align 4
  %68 = icmp slt i32 %66, %67
  br i1 %68, label %69, label %83

69:                                               ; preds = %65
  %70 = load i32, i32* %8, align 4
  %71 = sub nsw i32 %70, 1
  %72 = sext i32 %71 to i64
  %73 = getelementptr inbounds [100 x [100 x i32]], [100 x [100 x i32]]* %10, i64 0, i64 %72
  %74 = load i32, i32* %12, align 4
  %75 = sext i32 %74 to i64
  %76 = getelementptr inbounds [100 x i32], [100 x i32]* %73, i64 0, i64 %75
  %77 = load i32, i32* %76, align 4
  %78 = load i32, i32* %14, align 4
  %79 = add nsw i32 %78, %77
  store i32 %79, i32* %14, align 4
  br label %80

80:                                               ; preds = %69
  %81 = load i32, i32* %12, align 4
  %82 = add nsw i32 %81, 1
  store i32 %82, i32* %12, align 4
  br label %65

83:                                               ; preds = %65
  store i32 1, i32* %11, align 4
  br label %84

84:                                               ; preds = %106, %83
  %85 = load i32, i32* %11, align 4
  %86 = load i32, i32* %8, align 4
  %87 = sub nsw i32 %86, 1
  %88 = icmp slt i32 %85, %87
  br i1 %88, label %89, label %109

89:                                               ; preds = %84
  %90 = load i32, i32* %11, align 4
  %91 = sext i32 %90 to i64
  %92 = getelementptr inbounds [100 x [100 x i32]], [100 x [100 x i32]]* %10, i64 0, i64 %91
  %93 = getelementptr inbounds [100 x i32], [100 x i32]* %92, i64 0, i64 0
  %94 = load i32, i32* %93, align 16
  %95 = load i32, i32* %11, align 4
  %96 = sext i32 %95 to i64
  %97 = getelementptr inbounds [100 x [100 x i32]], [100 x [100 x i32]]* %10, i64 0, i64 %96
  %98 = load i32, i32* %9, align 4
  %99 = sub nsw i32 %98, 1
  %100 = sext i32 %99 to i64
  %101 = getelementptr inbounds [100 x i32], [100 x i32]* %97, i64 0, i64 %100
  %102 = load i32, i32* %101, align 4
  %103 = add nsw i32 %94, %102
  %104 = load i32, i32* %15, align 4
  %105 = add nsw i32 %104, %103
  store i32 %105, i32* %15, align 4
  br label %106

106:                                              ; preds = %89
  %107 = load i32, i32* %11, align 4
  %108 = add nsw i32 %107, 1
  store i32 %108, i32* %11, align 4
  br label %84

109:                                              ; preds = %84
  %110 = load i32, i32* %13, align 4
  %111 = load i32, i32* %14, align 4
  %112 = add nsw i32 %110, %111
  %113 = load i32, i32* %15, align 4
  %114 = add nsw i32 %112, %113
  store i32 %114, i32* %16, align 4
  %115 = load i32, i32* %16, align 4
  %116 = call i32 (i8*, ...) @printf(i8* getelementptr inbounds ([4 x i8], [4 x i8]* @.str.2, i64 0, i64 0), i32 %115)
  br label %117

117:                                              ; preds = %109
  %118 = load i32, i32* %7, align 4
  %119 = add nsw i32 %118, 1
  store i32 %119, i32* %7, align 4
  br label %18

120:                                              ; preds = %18
  ret i32 0
}

declare dso_local i32 @__isoc99_scanf(i8*, ...) #1

declare dso_local i32 @printf(i8*, ...) #1


!llvm.module.flags = !{!0}
!llvm.ident = !{!1}

!0 = !{i32 1, !"wchar_size", i32 4}
!1 = !{!"clang version 10.0.0-4ubuntu1 "}
